target datalayout = "e-m:e-p270:32:32-p271:32:32-p272:64:64-i64:64-i128:128-f80:128-n8:16:32:64-S128"
target triple = "x86_64-pc-linux-gnu"

%struct._object = type { %union.anon, ptr }
%union.anon = type { i64 }
%struct.propertyobject = type { %struct._object, ptr, ptr, ptr, ptr, ptr, i32 }
%struct.anon = type { i32, i32 }

@_Py_NoneStruct = external global %struct._object, align 8

; Function Attrs: alwaysinline nounwind uwtable
define internal void @Py_INCREF(ptr noundef %0) #4 {
  %2 = alloca ptr, align 8
  %3 = alloca i32, align 4
  %4 = alloca i32, align 4
  store ptr %0, ptr %2, align 8, !tbaa !4
  call void @llvm.lifetime.start.p0(i64 4, ptr %3) #6
  %5 = load ptr, ptr %2, align 8, !tbaa !4
  %6 = getelementptr inbounds nuw %struct._object, ptr %5, i32 0, i32 0
  %7 = getelementptr inbounds nuw %struct.anon, ptr %6, i32 0, i32 0
  %8 = load i32, ptr %7, align 8, !tbaa !159
  store i32 %8, ptr %3, align 4, !tbaa !16
  %9 = load i32, ptr %3, align 4, !tbaa !16
  %10 = icmp slt i32 %9, 0
  br i1 %10, label %11, label %12

11:                                               ; preds = %1
  store i32 1, ptr %4, align 4
  br label %18

12:                                               ; preds = %1
  %13 = load i32, ptr %3, align 4, !tbaa !16
  %14 = add i32 %13, 1
  %15 = load ptr, ptr %2, align 8, !tbaa !4
  %16 = getelementptr inbounds nuw %struct._object, ptr %15, i32 0, i32 0
  %17 = getelementptr inbounds nuw %struct.anon, ptr %16, i32 0, i32 0
  store i32 %14, ptr %17, align 8, !tbaa !159
  store i32 0, ptr %4, align 4
  br label %18

18:                                               ; preds = %12, %11
  call void @llvm.lifetime.end.p0(i64 4, ptr %3) #6
  %19 = load i32, ptr %4, align 4
  switch i32 %19, label %21 [
    i32 0, label %20
    i32 1, label %20
  ]

20:                                               ; preds = %18, %18
  ret void

21:                                               ; preds = %18
  unreachable
}

; Function Attrs: inlinehint nounwind uwtable
define internal void @Py_XINCREF(ptr noundef %0) #3 {
  %2 = alloca ptr, align 8
  store ptr %0, ptr %2, align 8, !tbaa !4
  %3 = load ptr, ptr %2, align 8, !tbaa !4
  %4 = icmp ne ptr %3, null
  br i1 %4, label %5, label %7

5:                                                ; preds = %1
  %6 = load ptr, ptr %2, align 8, !tbaa !4
  call void @Py_INCREF(ptr noundef %6)
  br label %7

7:                                                ; preds = %5, %1
  ret void
}

; Function Attrs: inlinehint nounwind uwtable
define internal ptr @_Py_TYPE(ptr noundef %0) #3 {
  %2 = alloca ptr, align 8
  store ptr %0, ptr %2, align 8, !tbaa !4
  %3 = load ptr, ptr %2, align 8, !tbaa !4
  %4 = getelementptr inbounds nuw %struct._object, ptr %3, i32 0, i32 1
  %5 = load ptr, ptr %4, align 8, !tbaa !64
  ret ptr %5
}

; Function Attrs: inlinehint nounwind uwtable
define internal i32 @Py_IS_TYPE(ptr noundef %0, ptr noundef %1) #3 {
  %3 = alloca ptr, align 8
  %4 = alloca ptr, align 8
  store ptr %0, ptr %3, align 8, !tbaa !4
  store ptr %1, ptr %4, align 8, !tbaa !33
  %5 = load ptr, ptr %3, align 8, !tbaa !4
  %6 = call ptr @_Py_TYPE(ptr noundef %5)
  %7 = load ptr, ptr %4, align 8, !tbaa !33
  %8 = icmp eq ptr %6, %7
  %9 = zext i1 %8 to i32
  ret i32 %9
}

; Function Attrs: alwaysinline nounwind uwtable
define internal i32 @_Py_IsImmortal(ptr noundef %0) #4 {
  %2 = alloca ptr, align 8
  store ptr %0, ptr %2, align 8, !tbaa !4
  %3 = load ptr, ptr %2, align 8, !tbaa !4
  %4 = getelementptr inbounds nuw %struct._object, ptr %3, i32 0, i32 0
  %5 = getelementptr inbounds nuw %struct.anon, ptr %4, i32 0, i32 0
  %6 = load i32, ptr %5, align 8, !tbaa !159
  %7 = icmp slt i32 %6, 0
  %8 = zext i1 %7 to i32
  ret i32 %8
}

; Function Attrs: inlinehint nounwind uwtable
define internal void @Py_XDECREF(ptr noundef %0) #3 {
  %2 = alloca ptr, align 8
  store ptr %0, ptr %2, align 8, !tbaa !4
  %3 = load ptr, ptr %2, align 8, !tbaa !4
  %4 = icmp ne ptr %3, null
  br i1 %4, label %5, label %7

5:                                                ; preds = %1
  %6 = load ptr, ptr %2, align 8, !tbaa !4
  call void @Py_DECREF(ptr noundef %6)
  br label %7

7:                                                ; preds = %5, %1
  ret void
}

; Function Attrs: inlinehint nounwind uwtable
define internal ptr @_Py_XNewRef(ptr noundef %0) #3 {
  %2 = alloca ptr, align 8
  store ptr %0, ptr %2, align 8, !tbaa !4
  %3 = load ptr, ptr %2, align 8, !tbaa !4
  call void @Py_XINCREF(ptr noundef %3)
  %4 = load ptr, ptr %2, align 8, !tbaa !4
  ret ptr %4
}

; Function Attrs: inlinehint nounwind uwtable
define internal i32 @PyObject_TypeCheck(ptr noundef %0, ptr noundef %1) #3 {
  %3 = alloca ptr, align 8
  %4 = alloca ptr, align 8
  store ptr %0, ptr %3, align 8, !tbaa !4
  store ptr %1, ptr %4, align 8, !tbaa !33
  %5 = load ptr, ptr %3, align 8, !tbaa !4
  %6 = load ptr, ptr %4, align 8, !tbaa !33
  %7 = call i32 @Py_IS_TYPE(ptr noundef %5, ptr noundef %6)
  %8 = icmp ne i32 %7, 0
  br i1 %8, label %15, label %9

9:                                                ; preds = %2
  %10 = load ptr, ptr %3, align 8, !tbaa !4
  %11 = call ptr @_Py_TYPE(ptr noundef %10)
  %12 = load ptr, ptr %4, align 8, !tbaa !33
  %13 = call i32 @PyType_IsSubtype(ptr noundef %11, ptr noundef %12)
  %14 = icmp ne i32 %13, 0
  br label %15

15:                                               ; preds = %9, %2
  %16 = phi i1 [ true, %2 ], [ %14, %9 ]
  %17 = zext i1 %16 to i32
  ret i32 %17
}

; Function Attrs: alwaysinline nounwind uwtable
define internal void @Py_DECREF(ptr noundef %0) #4 {
  %2 = alloca ptr, align 8
  store ptr %0, ptr %2, align 8, !tbaa !4
  %3 = load ptr, ptr %2, align 8, !tbaa !4
  %4 = call i32 @_Py_IsImmortal(ptr noundef %3)
  %5 = icmp ne i32 %4, 0
  br i1 %5, label %6, label %7

6:                                                ; preds = %1
  br label %16

7:                                                ; preds = %1
  %8 = load ptr, ptr %2, align 8, !tbaa !4
  %9 = getelementptr inbounds nuw %struct._object, ptr %8, i32 0, i32 0
  %10 = getelementptr inbounds nuw %struct.anon, ptr %9, i32 0, i32 0
  %11 = load i32, ptr %10, align 8, !tbaa !159
  %12 = add i32 %11, -1
  store i32 %12, ptr %10, align 8, !tbaa !159
  %13 = icmp eq i32 %12, 0
  br i1 %13, label %14, label %16

14:                                               ; preds = %7
  %15 = load ptr, ptr %2, align 8, !tbaa !4
  call void @_Py_Dealloc(ptr noundef %15)
  br label %16

16:                                               ; preds = %6, %14, %7
  ret void
}

; Function Attrs: nounwind uwtable
define internal ptr @property_copy(ptr noundef %0, ptr noundef %1, ptr noundef %2, ptr noundef %3) #0 {
  %5 = alloca ptr, align 8
  %6 = alloca ptr, align 8
  %7 = alloca ptr, align 8
  %8 = alloca ptr, align 8
  %9 = alloca ptr, align 8
  %10 = alloca ptr, align 8
  %11 = alloca ptr, align 8
  %12 = alloca ptr, align 8
  %13 = alloca ptr, align 8
  %14 = alloca i32, align 4
  %15 = alloca ptr, align 8
  %16 = alloca ptr, align 8
  store ptr %0, ptr %6, align 8, !tbaa !4
  store ptr %1, ptr %7, align 8, !tbaa !4
  store ptr %2, ptr %8, align 8, !tbaa !4
  store ptr %3, ptr %9, align 8, !tbaa !4
  call void @llvm.lifetime.start.p0(i64 8, ptr %10) #6
  %17 = load ptr, ptr %6, align 8, !tbaa !4
  store ptr %17, ptr %10, align 8, !tbaa !9
  call void @llvm.lifetime.start.p0(i64 8, ptr %11) #6
  call void @llvm.lifetime.start.p0(i64 8, ptr %12) #6
  call void @llvm.lifetime.start.p0(i64 8, ptr %13) #6
  %18 = load ptr, ptr %6, align 8, !tbaa !4
  %19 = call ptr @PyObject_Type(ptr noundef %18)
  store ptr %19, ptr %12, align 8, !tbaa !4
  %20 = load ptr, ptr %12, align 8, !tbaa !4
  %21 = icmp eq ptr %20, null
  br i1 %21, label %22, label %23

22:                                               ; preds = %4
  store ptr null, ptr %5, align 8
  store i32 1, ptr %14, align 4
  br label %129

23:                                               ; preds = %4
  %24 = load ptr, ptr %7, align 8, !tbaa !4
  %25 = icmp eq ptr %24, null
  br i1 %25, label %29, label %26

26:                                               ; preds = %23
  %27 = load ptr, ptr %7, align 8, !tbaa !4
  %28 = icmp eq ptr %27, @_Py_NoneStruct
  br i1 %28, label %29, label %41

29:                                               ; preds = %26, %23
  %30 = load ptr, ptr %10, align 8, !tbaa !9
  %31 = getelementptr inbounds nuw %struct.propertyobject, ptr %30, i32 0, i32 1
  %32 = load ptr, ptr %31, align 8, !tbaa !152
  %33 = icmp ne ptr %32, null
  br i1 %33, label %34, label %38

34:                                               ; preds = %29
  %35 = load ptr, ptr %10, align 8, !tbaa !9
  %36 = getelementptr inbounds nuw %struct.propertyobject, ptr %35, i32 0, i32 1
  %37 = load ptr, ptr %36, align 8, !tbaa !152
  br label %39

38:                                               ; preds = %29
  br label %39

39:                                               ; preds = %38, %34
  %40 = phi ptr [ %37, %34 ], [ @_Py_NoneStruct, %38 ]
  store ptr %40, ptr %7, align 8, !tbaa !4
  br label %41

41:                                               ; preds = %39, %26
  %42 = load ptr, ptr %8, align 8, !tbaa !4
  %43 = icmp eq ptr %42, null
  br i1 %43, label %47, label %44

44:                                               ; preds = %41
  %45 = load ptr, ptr %8, align 8, !tbaa !4
  %46 = icmp eq ptr %45, @_Py_NoneStruct
  br i1 %46, label %47, label %59

47:                                               ; preds = %44, %41
  %48 = load ptr, ptr %10, align 8, !tbaa !9
  %49 = getelementptr inbounds nuw %struct.propertyobject, ptr %48, i32 0, i32 2
  %50 = load ptr, ptr %49, align 8, !tbaa !154
  %51 = icmp ne ptr %50, null
  br i1 %51, label %52, label %56

52:                                               ; preds = %47
  %53 = load ptr, ptr %10, align 8, !tbaa !9
  %54 = getelementptr inbounds nuw %struct.propertyobject, ptr %53, i32 0, i32 2
  %55 = load ptr, ptr %54, align 8, !tbaa !154
  br label %57

56:                                               ; preds = %47
  br label %57

57:                                               ; preds = %56, %52
  %58 = phi ptr [ %55, %52 ], [ @_Py_NoneStruct, %56 ]
  store ptr %58, ptr %8, align 8, !tbaa !4
  br label %59

59:                                               ; preds = %57, %44
  %60 = load ptr, ptr %9, align 8, !tbaa !4
  %61 = icmp eq ptr %60, null
  br i1 %61, label %65, label %62

62:                                               ; preds = %59
  %63 = load ptr, ptr %9, align 8, !tbaa !4
  %64 = icmp eq ptr %63, @_Py_NoneStruct
  br i1 %64, label %65, label %77

65:                                               ; preds = %62, %59
  %66 = load ptr, ptr %10, align 8, !tbaa !9
  %67 = getelementptr inbounds nuw %struct.propertyobject, ptr %66, i32 0, i32 3
  %68 = load ptr, ptr %67, align 8, !tbaa !155
  %69 = icmp ne ptr %68, null
  br i1 %69, label %70, label %74

70:                                               ; preds = %65
  %71 = load ptr, ptr %10, align 8, !tbaa !9
  %72 = getelementptr inbounds nuw %struct.propertyobject, ptr %71, i32 0, i32 3
  %73 = load ptr, ptr %72, align 8, !tbaa !155
  br label %75

74:                                               ; preds = %65
  br label %75

75:                                               ; preds = %74, %70
  %76 = phi ptr [ %73, %70 ], [ @_Py_NoneStruct, %74 ]
  store ptr %76, ptr %9, align 8, !tbaa !4
  br label %77

77:                                               ; preds = %75, %62
  %78 = load ptr, ptr %10, align 8, !tbaa !9
  %79 = getelementptr inbounds nuw %struct.propertyobject, ptr %78, i32 0, i32 6
  %80 = load i32, ptr %79, align 8, !tbaa !174
  %81 = icmp ne i32 %80, 0
  br i1 %81, label %82, label %86

82:                                               ; preds = %77
  %83 = load ptr, ptr %7, align 8, !tbaa !4
  %84 = icmp ne ptr %83, @_Py_NoneStruct
  br i1 %84, label %85, label %86

85:                                               ; preds = %82
  store ptr @_Py_NoneStruct, ptr %13, align 8, !tbaa !4
  br label %98

86:                                               ; preds = %82, %77
  %87 = load ptr, ptr %10, align 8, !tbaa !9
  %88 = getelementptr inbounds nuw %struct.propertyobject, ptr %87, i32 0, i32 4
  %89 = load ptr, ptr %88, align 8, !tbaa !156
  %90 = icmp ne ptr %89, null
  br i1 %90, label %91, label %95

91:                                               ; preds = %86
  %92 = load ptr, ptr %10, align 8, !tbaa !9
  %93 = getelementptr inbounds nuw %struct.propertyobject, ptr %92, i32 0, i32 4
  %94 = load ptr, ptr %93, align 8, !tbaa !156
  br label %96

95:                                               ; preds = %86
  br label %96

96:                                               ; preds = %95, %91
  %97 = phi ptr [ %94, %91 ], [ @_Py_NoneStruct, %95 ]
  store ptr %97, ptr %13, align 8, !tbaa !4
  br label %98

98:                                               ; preds = %96, %85
  %99 = load ptr, ptr %12, align 8, !tbaa !4
  %100 = load ptr, ptr %7, align 8, !tbaa !4
  %101 = load ptr, ptr %8, align 8, !tbaa !4
  %102 = load ptr, ptr %9, align 8, !tbaa !4
  %103 = load ptr, ptr %13, align 8, !tbaa !4
  %104 = call ptr (ptr, ...) @PyObject_CallFunctionObjArgs(ptr noundef %99, ptr noundef %100, ptr noundef %101, ptr noundef %102, ptr noundef %103, ptr noundef null)
  store ptr %104, ptr %11, align 8, !tbaa !4
  %105 = load ptr, ptr %12, align 8, !tbaa !4
  call void @Py_DECREF(ptr noundef %105)
  %106 = load ptr, ptr %11, align 8, !tbaa !4
  %107 = icmp eq ptr %106, null
  br i1 %107, label %108, label %109

108:                                              ; preds = %98
  store ptr null, ptr %5, align 8
  store i32 1, ptr %14, align 4
  br label %129

109:                                              ; preds = %98
  %110 = load ptr, ptr %11, align 8, !tbaa !4
  %111 = call i32 @PyObject_TypeCheck(ptr noundef %110, ptr noundef @PyProperty_Type)
  %112 = icmp ne i32 %111, 0
  br i1 %112, label %113, label %127

113:                                              ; preds = %109
  br label %114

114:                                              ; preds = %113
  call void @llvm.lifetime.start.p0(i64 8, ptr %15) #6
  %115 = load ptr, ptr %11, align 8, !tbaa !4
  %116 = getelementptr inbounds nuw %struct.propertyobject, ptr %115, i32 0, i32 5
  store ptr %116, ptr %15, align 8, !tbaa !48
  call void @llvm.lifetime.start.p0(i64 8, ptr %16) #6
  %117 = load ptr, ptr %15, align 8, !tbaa !48
  %118 = load ptr, ptr %117, align 8, !tbaa !4
  store ptr %118, ptr %16, align 8, !tbaa !4
  %119 = load ptr, ptr %10, align 8, !tbaa !9
  %120 = getelementptr inbounds nuw %struct.propertyobject, ptr %119, i32 0, i32 5
  %121 = load ptr, ptr %120, align 8, !tbaa !157
  %122 = call ptr @_Py_XNewRef(ptr noundef %121)
  %123 = load ptr, ptr %15, align 8, !tbaa !48
  store ptr %122, ptr %123, align 8, !tbaa !4
  %124 = load ptr, ptr %16, align 8, !tbaa !4
  call void @Py_XDECREF(ptr noundef %124)
  call void @llvm.lifetime.end.p0(i64 8, ptr %16) #6
  call void @llvm.lifetime.end.p0(i64 8, ptr %15) #6
  br label %125

125:                                              ; preds = %114
  br label %126

126:                                              ; preds = %125
  br label %127

127:                                              ; preds = %126, %109
  %128 = load ptr, ptr %11, align 8, !tbaa !4
  store ptr %128, ptr %5, align 8
  store i32 1, ptr %14, align 4
  br label %129

129:                                              ; preds = %127, %108, %22
  call void @llvm.lifetime.end.p0(i64 8, ptr %13) #6
  call void @llvm.lifetime.end.p0(i64 8, ptr %12) #6
  call void @llvm.lifetime.end.p0(i64 8, ptr %11) #6
  call void @llvm.lifetime.end.p0(i64 8, ptr %10) #6
  %130 = load ptr, ptr %5, align 8
  ret ptr %130
}