; Function Attrs: nounwind uwtable
define internal fastcc ptr @property_copy(ptr noundef %0, ptr noundef %1, ptr noundef %2, ptr noundef %3) unnamed_addr #0 {
  %5 = tail call ptr @PyObject_Type(ptr noundef %0) #9
  %6 = icmp eq ptr %5, null
  br i1 %6, label %Py_XDECREF.exit, label %7

7:                                                ; preds = %4
  %8 = icmp eq ptr %1, null
  %9 = icmp eq ptr %1, @_Py_NoneStruct
  %or.cond = or i1 %8, %9
  br i1 %or.cond, label %10, label %13

10:                                               ; preds = %7
  %11 = getelementptr inbounds nuw i8, ptr %0, i64 16
  %12 = load ptr, ptr %11, align 8, !tbaa !152
  %.not = icmp eq ptr %12, null
  %spec.select = select i1 %.not, ptr @_Py_NoneStruct, ptr %12
  br label %13

13:                                               ; preds = %7, %10
  %.041 = phi ptr [ %spec.select, %10 ], [ %1, %7 ]
  %14 = icmp eq ptr %2, null
  %15 = icmp eq ptr %2, @_Py_NoneStruct
  %or.cond3 = or i1 %14, %15
  br i1 %or.cond3, label %16, label %19

16:                                               ; preds = %13
  %17 = getelementptr inbounds nuw i8, ptr %0, i64 24
  %18 = load ptr, ptr %17, align 8, !tbaa !154
  %.not54 = icmp eq ptr %18, null
  %spec.select58 = select i1 %.not54, ptr @_Py_NoneStruct, ptr %18
  br label %19

19:                                               ; preds = %13, %16
  %.043 = phi ptr [ %spec.select58, %16 ], [ %2, %13 ]
  %20 = icmp eq ptr %3, null
  %21 = icmp eq ptr %3, @_Py_NoneStruct
  %or.cond5 = or i1 %20, %21
  br i1 %or.cond5, label %22, label %25

22:                                               ; preds = %19
  %23 = getelementptr inbounds nuw i8, ptr %0, i64 32
  %24 = load ptr, ptr %23, align 8, !tbaa !155
  %.not55 = icmp eq ptr %24, null
  %spec.select59 = select i1 %.not55, ptr @_Py_NoneStruct, ptr %24
  br label %25

25:                                               ; preds = %19, %22
  %.044 = phi ptr [ %spec.select59, %22 ], [ %3, %19 ]
  %26 = getelementptr inbounds nuw i8, ptr %0, i64 56
  %27 = load i32, ptr %26, align 8, !tbaa !159
  %28 = icmp ne i32 %27, 0
  %29 = icmp ne ptr %.041, @_Py_NoneStruct
  %or.cond7 = and i1 %29, %28
  br i1 %or.cond7, label %33, label %30

30:                                               ; preds = %25
  %31 = getelementptr inbounds nuw i8, ptr %0, i64 40
  %32 = load ptr, ptr %31, align 8, !tbaa !156
  %.not56 = icmp eq ptr %32, null
  %spec.select60 = select i1 %.not56, ptr @_Py_NoneStruct, ptr %32
  br label %33

33:                                               ; preds = %25, %30
  %.042 = phi ptr [ %spec.select60, %30 ], [ @_Py_NoneStruct, %25 ]
  %34 = tail call ptr (ptr, ...) @PyObject_CallFunctionObjArgs(ptr noundef nonnull %5, ptr noundef %.041, ptr noundef %.043, ptr noundef %.044, ptr noundef nonnull %.042, ptr noundef null) #9
  %35 = load i32, ptr %5, align 8, !tbaa !16
  %.not.i = icmp sgt i32 %35, -1
  br i1 %.not.i, label %36, label %Py_DECREF.exit

36:                                               ; preds = %33
  %37 = add nsw i32 %35, -1
  store i32 %37, ptr %5, align 8, !tbaa !16
  %38 = icmp eq i32 %37, 0
  br i1 %38, label %39, label %Py_DECREF.exit

39:                                               ; preds = %36
  tail call void @_Py_Dealloc(ptr noundef nonnull %5) #9
  br label %Py_DECREF.exit

Py_DECREF.exit:                                   ; preds = %33, %36, %39
  %40 = icmp eq ptr %34, null
  br i1 %40, label %Py_XDECREF.exit, label %41

41:                                               ; preds = %Py_DECREF.exit
  %42 = getelementptr i8, ptr %34, i64 8
  %.val = load ptr, ptr %42, align 8, !tbaa !19
  %.not.i61 = icmp eq ptr %.val, @PyProperty_Type
  br i1 %.not.i61, label %PyObject_TypeCheck.exit.thread, label %PyObject_TypeCheck.exit

PyObject_TypeCheck.exit:                          ; preds = %41
  %43 = tail call i32 @PyType_IsSubtype(ptr noundef %.val, ptr noundef nonnull @PyProperty_Type) #9
  %.not65 = icmp eq i32 %43, 0
  br i1 %.not65, label %Py_XDECREF.exit, label %PyObject_TypeCheck.exit.thread

PyObject_TypeCheck.exit.thread:                   ; preds = %41, %PyObject_TypeCheck.exit
  %44 = getelementptr inbounds nuw i8, ptr %34, i64 48
  %45 = load ptr, ptr %44, align 8, !tbaa !30
  %46 = getelementptr inbounds nuw i8, ptr %0, i64 48
  %47 = load ptr, ptr %46, align 8, !tbaa !157
  %.not.i.i = icmp eq ptr %47, null
  br i1 %.not.i.i, label %_Py_XNewRef.exit, label %48

48:                                               ; preds = %PyObject_TypeCheck.exit.thread
  %49 = load i32, ptr %47, align 8, !tbaa !16
  %50 = icmp slt i32 %49, 0
  br i1 %50, label %_Py_XNewRef.exit, label %51

51:                                               ; preds = %48
  %52 = add nuw i32 %49, 1
  store i32 %52, ptr %47, align 8, !tbaa !16
  br label %_Py_XNewRef.exit

_Py_XNewRef.exit:                                 ; preds = %PyObject_TypeCheck.exit.thread, %48, %51
  store ptr %47, ptr %44, align 8, !tbaa !30
  %.not.i62 = icmp eq ptr %45, null
  br i1 %.not.i62, label %Py_XDECREF.exit, label %53

53:                                               ; preds = %_Py_XNewRef.exit
  %54 = load i32, ptr %45, align 8, !tbaa !16
  %.not.i.i63 = icmp sgt i32 %54, -1
  br i1 %.not.i.i63, label %55, label %Py_XDECREF.exit

55:                                               ; preds = %53
  %56 = add nsw i32 %54, -1
  store i32 %56, ptr %45, align 8, !tbaa !16
  %57 = icmp eq i32 %56, 0
  br i1 %57, label %58, label %Py_XDECREF.exit

58:                                               ; preds = %55
  tail call void @_Py_Dealloc(ptr noundef nonnull %45) #9
  br label %Py_XDECREF.exit

Py_XDECREF.exit:                                  ; preds = %58, %55, %53, %_Py_XNewRef.exit, %PyObject_TypeCheck.exit, %Py_DECREF.exit, %4
  %.0 = phi ptr [ null, %4 ], [ null, %Py_DECREF.exit ], [ %34, %PyObject_TypeCheck.exit ], [ %34, %_Py_XNewRef.exit ], [ %34, %53 ], [ %34, %55 ], [ %34, %58 ]
  ret ptr %.0
}